; Function Attrs: mustprogress uwtable
define hidden noundef i32 @_Z21fed_tau_by_cycle_timeRKfS0_RKbRSt6vectorIfSaIfEE(ptr noundef nonnull readonly align 4 captures(none) dereferenceable(4) %0, ptr noundef nonnull readonly align 4 captures(none) dereferenceable(4) %1, ptr noundef nonnull readonly align 1 captures(none) dereferenceable(1) %2, ptr noundef nonnull align 8 captures(none) dereferenceable(24) %3) local_unnamed_addr #0 {
  %5 = alloca i32, align 4
  %6 = alloca float, align 4
  call void @llvm.lifetime.start.p0(i64 4, ptr nonnull %5) #10
  call void @llvm.lifetime.start.p0(i64 4, ptr nonnull %6) #10
  %7 = load float, ptr %0, align 4, !tbaa !3
  %8 = fmul float %7, 3.000000e+00
  %9 = load float, ptr %1, align 4, !tbaa !3
  %10 = fdiv float %8, %9
  %11 = fadd float %10, 2.500000e-01
  %12 = tail call float @sqrtf(float noundef %11) #10, !tbaa !7
  %13 = fadd float %12, -5.000000e-01
  %14 = fadd float %13, 0xBE45798EE0000000
  %15 = tail call float @llvm.ceil.f32(float %14)
  %16 = fptosi float %15 to i32
  store i32 %16, ptr %5, align 4, !tbaa !7
  %17 = add nsw i32 %16, 1
  %18 = mul nsw i32 %17, %16
  %19 = sitofp i32 %18 to float
  %20 = fmul float %9, %19
  %21 = fdiv float %8, %20
  store float %21, ptr %6, align 4, !tbaa !3
  %22 = call noundef i32 @_Z16fed_tau_internalRKiRKfS2_RKbRSt6vectorIfSaIfEE(ptr noundef nonnull align 4 dereferenceable(4) %5, ptr noundef nonnull align 4 dereferenceable(4) %6, ptr noundef nonnull align 4 dereferenceable(4) %1, ptr noundef nonnull align 1 dereferenceable(1) %2, ptr noundef nonnull align 8 dereferenceable(24) %3)
  call void @llvm.lifetime.end.p0(i64 4, ptr nonnull %6) #10
  call void @llvm.lifetime.end.p0(i64 4, ptr nonnull %5) #10
  ret i32 %22
}